; Function Attrs: mustprogress nofree norecurse nosync nounwind willreturn memory(argmem: write) uwtable
define hidden void @_ZN6spacer21limit_num_generalizerC2ERNS_7contextEj(ptr noundef nonnull writeonly align 8 captures(none) dereferenceable(56) initializes((0, 20), (24, 49)) %0, ptr noundef nonnull align 8 dereferenceable(712) %1, i32 noundef %2) unnamed_addr #3 align 2 personality ptr @__gxx_personality_v0 {
  %4 = getelementptr inbounds nuw i8, ptr %0, i64 8
  store ptr %1, ptr %4, align 8, !tbaa !3
  store ptr getelementptr inbounds nuw inrange(-16, 40) (i8, ptr @_ZTVN6spacer21limit_num_generalizerE, i64 16), ptr %0, align 8, !tbaa !8
  %5 = getelementptr inbounds nuw i8, ptr %0, i64 16
  store i32 %2, ptr %5, align 8, !tbaa !10
  %6 = getelementptr inbounds nuw i8, ptr %0, i64 24
  tail call void @llvm.memset.p0.i64(ptr noundef nonnull align 8 dereferenceable(32) %6, i8 0, i64 25, i1 false)
  ret void
}